target datalayout = "e-m:e-p270:32:32-p271:32:32-p272:64:64-i64:64-i128:128-f80:128-n8:16:32:64-S128"
target triple = "x86_64-pc-linux-gnu"

%struct._zval_struct = type { %union._zend_value, %union.anon.9, %union.anon.12 }
%union._zend_value = type { i64 }
%union.anon.9 = type { i32 }
%union.anon.12 = type { i32 }
%struct._zend_op_array = type { i8, [3 x i8], i32, ptr, ptr, ptr, i32, i32, ptr, ptr, ptr, ptr, i32, i32, i32, i32, ptr, ptr, ptr, ptr, ptr, i32, i32, ptr, ptr, ptr, i32, i32, i32, i32, ptr, ptr, [6 x ptr] }
%struct._zend_refcounted_h = type { i32, %union.anon.0 }
%union.anon.0 = type { i32 }
%struct._zend_fcall_info_cache = type { ptr, ptr, ptr, ptr, ptr }
%struct.xml_parser = type { ptr, ptr, %struct._zval_struct, ptr, %struct._zend_fcall_info_cache, %struct._zend_fcall_info_cache, %struct._zend_fcall_info_cache, %struct._zend_fcall_info_cache, %struct._zend_fcall_info_cache, %struct._zend_fcall_info_cache, %struct._zend_fcall_info_cache, %struct._zend_fcall_info_cache, %struct._zend_fcall_info_cache, %struct._zend_fcall_info_cache, %struct._zval_struct, %struct._zval_struct, i32, i32, i32, ptr, ptr, i8, i8, i8, i8, i8, ptr, %struct._zend_object }
%struct._zend_object = type { %struct._zend_refcounted_h, i32, ptr, ptr, ptr, [1 x %struct._zval_struct] }
%struct._zend_refcounted = type { %struct._zend_refcounted_h }
%struct._zend_string = type { %struct._zend_refcounted_h, i64, i64, [1 x i8] }
%struct.anon.13 = type { i8, [3 x i8], i32, ptr, ptr, ptr, i32, i32, ptr, ptr, ptr, ptr, i32 }

; Function Attrs: nounwind uwtable
define internal i32 @_xml_xmlcharlen(ptr noundef %0) #0 {
  %2 = alloca ptr, align 8
  %3 = alloca i32, align 4
  store ptr %0, ptr %2, align 8
  store i32 0, ptr %3, align 4
  br label %4

4:                                                ; preds = %8, %1
  %5 = load ptr, ptr %2, align 8
  %6 = load i8, ptr %5, align 1
  %7 = icmp ne i8 %6, 0
  br i1 %7, label %8, label %13

8:                                                ; preds = %4
  %9 = load i32, ptr %3, align 4
  %10 = add nsw i32 %9, 1
  store i32 %10, ptr %3, align 4
  %11 = load ptr, ptr %2, align 8
  %12 = getelementptr inbounds i8, ptr %11, i32 1
  store ptr %12, ptr %2, align 8
  br label %4

13:                                               ; preds = %4
  %14 = load i32, ptr %3, align 4
  ret i32 %14
}

; Function Attrs: nounwind uwtable
define internal void @_xml_xmlchar_zval(ptr noundef %0, i32 noundef %1, ptr noundef %2, ptr noundef %3) #0 {
  %5 = alloca i32, align 4
  %6 = alloca ptr, align 8
  %7 = alloca i32, align 4
  %8 = alloca ptr, align 8
  %9 = alloca ptr, align 8
  %10 = alloca ptr, align 8
  %11 = alloca ptr, align 8
  store ptr %0, ptr %6, align 8
  store i32 %1, ptr %7, align 4
  store ptr %2, ptr %8, align 8
  store ptr %3, ptr %9, align 8
  %12 = load ptr, ptr %6, align 8
  %13 = icmp eq ptr %12, null
  br i1 %13, label %14, label %19

14:                                               ; preds = %4
  br label %15

15:                                               ; preds = %14
  %16 = load ptr, ptr %9, align 8
  %17 = getelementptr inbounds %struct._zval_struct, ptr %16, i32 0, i32 1
  store i32 2, ptr %17, align 8
  br label %18

18:                                               ; preds = %15
  br label %47

19:                                               ; preds = %4
  %20 = load i32, ptr %7, align 4
  %21 = icmp eq i32 %20, 0
  br i1 %21, label %22, label %25

22:                                               ; preds = %19
  %23 = load ptr, ptr %6, align 8
  %24 = call i32 @_xml_xmlcharlen(ptr noundef %23)
  store i32 %24, ptr %7, align 4
  br label %25

25:                                               ; preds = %22, %19
  br label %26

26:                                               ; preds = %25
  %27 = load ptr, ptr %9, align 8
  store ptr %27, ptr %10, align 8
  %28 = load ptr, ptr %6, align 8
  %29 = load i32, ptr %7, align 4
  %30 = sext i32 %29 to i64
  %31 = load ptr, ptr %8, align 8
  %32 = call ptr @xml_utf8_decode(ptr noundef %28, i64 noundef %30, ptr noundef %31)
  store ptr %32, ptr %11, align 8
  %33 = load ptr, ptr %11, align 8
  %34 = load ptr, ptr %10, align 8
  %35 = getelementptr inbounds %struct._zval_struct, ptr %34, i32 0, i32 0
  store ptr %33, ptr %35, align 8
  %36 = load ptr, ptr %11, align 8
  %37 = getelementptr inbounds %struct._zend_string, ptr %36, i32 0, i32 0
  %38 = getelementptr inbounds %struct._zend_refcounted_h, ptr %37, i32 0, i32 1
  %39 = load i32, ptr %38, align 4
  store i32 %39, ptr %5, align 4
  %40 = load i32, ptr %5, align 4
  %41 = and i32 %40, 1008
  %42 = and i32 %41, 64
  %43 = icmp ne i32 %42, 0
  %44 = select i1 %43, i32 6, i32 262
  %45 = load ptr, ptr %10, align 8
  %46 = getelementptr inbounds %struct._zval_struct, ptr %45, i32 0, i32 1
  store i32 %44, ptr %46, align 8
  br label %47

47:                                               ; preds = %26, %18
  ret void
}

; Function Attrs: nounwind uwtable
define hidden i32 @_xml_externalEntityRefHandler(ptr noundef %0, ptr noundef %1, ptr noundef %2, ptr noundef %3, ptr noundef %4) #0 {
  %6 = alloca i32, align 4
  %7 = alloca ptr, align 8
  %8 = alloca i32, align 4
  %9 = alloca ptr, align 8
  %10 = alloca ptr, align 8
  %11 = alloca ptr, align 8
  %12 = alloca ptr, align 8
  %13 = alloca i32, align 4
  %14 = alloca ptr, align 8
  %15 = alloca ptr, align 8
  %16 = alloca ptr, align 8
  %17 = alloca ptr, align 8
  %18 = alloca i32, align 4
  %19 = alloca ptr, align 8
  %20 = alloca ptr, align 8
  %21 = alloca ptr, align 8
  %22 = alloca ptr, align 8
  %23 = alloca ptr, align 8
  %24 = alloca ptr, align 8
  %25 = alloca i32, align 4
  %26 = alloca [5 x %struct._zval_struct], align 16
  %27 = alloca %struct._zval_struct, align 8
  %28 = alloca ptr, align 8
  %29 = alloca ptr, align 8
  %30 = alloca ptr, align 8
  %31 = alloca i32, align 4
  store ptr %0, ptr %19, align 8
  store ptr %1, ptr %20, align 8
  store ptr %2, ptr %21, align 8
  store ptr %3, ptr %22, align 8
  store ptr %4, ptr %23, align 8
  %32 = load ptr, ptr %19, align 8
  %33 = call ptr @XML_GetUserData(ptr noundef %32)
  store ptr %33, ptr %24, align 8
  %34 = load ptr, ptr %24, align 8
  %35 = icmp ne ptr %34, null
  br i1 %35, label %36, label %42

36:                                               ; preds = %5
  %37 = load ptr, ptr %24, align 8
  %38 = getelementptr inbounds %struct.xml_parser, ptr %37, i32 0, i32 11
  %39 = getelementptr inbounds %struct._zend_fcall_info_cache, ptr %38, i32 0, i32 0
  %40 = load ptr, ptr %39, align 8
  %41 = icmp ne ptr %40, null
  br i1 %41, label %43, label %42

42:                                               ; preds = %36, %5
  store i32 0, ptr %18, align 4
  br label %154

43:                                               ; preds = %36
  store i32 0, ptr %25, align 4
  br label %44

44:                                               ; preds = %43
  %45 = getelementptr inbounds [5 x %struct._zval_struct], ptr %26, i64 0, i64 0
  store ptr %45, ptr %28, align 8
  %46 = load ptr, ptr %24, align 8
  %47 = getelementptr inbounds %struct.xml_parser, ptr %46, i32 0, i32 2
  store ptr %47, ptr %29, align 8
  %48 = load ptr, ptr %29, align 8
  %49 = getelementptr inbounds %struct._zval_struct, ptr %48, i32 0, i32 0
  %50 = load ptr, ptr %49, align 8
  store ptr %50, ptr %30, align 8
  %51 = load ptr, ptr %29, align 8
  %52 = getelementptr inbounds %struct._zval_struct, ptr %51, i32 0, i32 1
  %53 = load i32, ptr %52, align 8
  store i32 %53, ptr %31, align 4
  br label %54

54:                                               ; preds = %44
  %55 = load ptr, ptr %30, align 8
  %56 = load ptr, ptr %28, align 8
  %57 = getelementptr inbounds %struct._zval_struct, ptr %56, i32 0, i32 0
  store ptr %55, ptr %57, align 8
  %58 = load i32, ptr %31, align 4
  %59 = load ptr, ptr %28, align 8
  %60 = getelementptr inbounds %struct._zval_struct, ptr %59, i32 0, i32 1
  store i32 %58, ptr %60, align 8
  br label %61

61:                                               ; preds = %54
  %62 = load i32, ptr %31, align 4
  %63 = and i32 %62, 65280
  %64 = icmp ne i32 %63, 0
  br i1 %64, label %65, label %71

65:                                               ; preds = %61
  %66 = load ptr, ptr %30, align 8
  %67 = getelementptr inbounds %struct._zend_refcounted, ptr %66, i32 0, i32 0
  store ptr %67, ptr %17, align 8
  %68 = load ptr, ptr %17, align 8
  %69 = load i32, ptr %68, align 4
  %70 = add i32 %69, 1
  store i32 %70, ptr %68, align 4
  br label %71

71:                                               ; preds = %65, %61
  br label %72

72:                                               ; preds = %71
  %73 = load ptr, ptr %20, align 8
  %74 = load ptr, ptr %24, align 8
  %75 = getelementptr inbounds %struct.xml_parser, ptr %74, i32 0, i32 1
  %76 = load ptr, ptr %75, align 8
  %77 = getelementptr inbounds [5 x %struct._zval_struct], ptr %26, i64 0, i64 1
  call void @_xml_xmlchar_zval(ptr noundef %73, i32 noundef 0, ptr noundef %76, ptr noundef %77)
  %78 = load ptr, ptr %21, align 8
  %79 = load ptr, ptr %24, align 8
  %80 = getelementptr inbounds %struct.xml_parser, ptr %79, i32 0, i32 1
  %81 = load ptr, ptr %80, align 8
  %82 = getelementptr inbounds [5 x %struct._zval_struct], ptr %26, i64 0, i64 2
  call void @_xml_xmlchar_zval(ptr noundef %78, i32 noundef 0, ptr noundef %81, ptr noundef %82)
  %83 = load ptr, ptr %22, align 8
  %84 = load ptr, ptr %24, align 8
  %85 = getelementptr inbounds %struct.xml_parser, ptr %84, i32 0, i32 1
  %86 = load ptr, ptr %85, align 8
  %87 = getelementptr inbounds [5 x %struct._zval_struct], ptr %26, i64 0, i64 3
  call void @_xml_xmlchar_zval(ptr noundef %83, i32 noundef 0, ptr noundef %86, ptr noundef %87)
  %88 = load ptr, ptr %23, align 8
  %89 = load ptr, ptr %24, align 8
  %90 = getelementptr inbounds %struct.xml_parser, ptr %89, i32 0, i32 1
  %91 = load ptr, ptr %90, align 8
  %92 = getelementptr inbounds [5 x %struct._zval_struct], ptr %26, i64 0, i64 4
  call void @_xml_xmlchar_zval(ptr noundef %88, i32 noundef 0, ptr noundef %91, ptr noundef %92)
  %93 = load ptr, ptr %24, align 8
  %94 = getelementptr inbounds %struct.xml_parser, ptr %93, i32 0, i32 11
  %95 = getelementptr inbounds [5 x %struct._zval_struct], ptr %26, i64 0, i64 0
  store ptr %94, ptr %11, align 8
  store ptr %27, ptr %12, align 8
  store i32 5, ptr %13, align 4
  store ptr %95, ptr %14, align 8
  store ptr null, ptr %15, align 8
  %96 = load ptr, ptr %11, align 8
  %97 = load ptr, ptr %96, align 8
  store ptr %97, ptr %16, align 8
  %98 = load ptr, ptr %16, align 8
  %99 = getelementptr inbounds %struct.anon.13, ptr %98, i32 0, i32 2
  %100 = load i32, ptr %99, align 4
  %101 = and i32 %100, 262144
  %102 = icmp ne i32 %101, 0
  br i1 %102, label %103, label %125

103:                                              ; preds = %72
  %104 = call noalias ptr @_emalloc_256() #11
  store ptr %104, ptr %16, align 8
  %105 = load ptr, ptr %16, align 8
  %106 = load ptr, ptr %11, align 8
  %107 = load ptr, ptr %106, align 8
  call void @llvm.memcpy.p0.p0.i64(ptr align 8 %105, ptr align 8 %107, i64 240, i1 false)
  %108 = load ptr, ptr %16, align 8
  %109 = getelementptr inbounds %struct._zend_op_array, ptr %108, i32 0, i32 3
  %110 = load ptr, ptr %109, align 8
  store ptr %110, ptr %9, align 8
  %111 = load ptr, ptr %9, align 8
  %112 = getelementptr inbounds %struct._zend_refcounted_h, ptr %111, i32 0, i32 1
  %113 = load i32, ptr %112, align 4
  store i32 %113, ptr %6, align 4
  %114 = load i32, ptr %6, align 4
  %115 = and i32 %114, 1008
  %116 = and i32 %115, 64
  %117 = icmp ne i32 %116, 0
  br i1 %117, label %123, label %118

118:                                              ; preds = %103
  %119 = load ptr, ptr %9, align 8
  store ptr %119, ptr %7, align 8
  %120 = load ptr, ptr %7, align 8
  %121 = load i32, ptr %120, align 4
  %122 = add i32 %121, 1
  store i32 %122, ptr %120, align 4
  store i32 %122, ptr %8, align 4
  br label %124

123:                                              ; preds = %103
  store i32 1, ptr %8, align 4
  br label %124

124:                                              ; preds = %123, %118
  br label %125

125:                                              ; preds = %124, %72
  %126 = load ptr, ptr %16, align 8
  %127 = load ptr, ptr %11, align 8
  %128 = getelementptr inbounds %struct._zend_fcall_info_cache, ptr %127, i32 0, i32 3
  %129 = load ptr, ptr %128, align 8
  %130 = load ptr, ptr %11, align 8
  %131 = getelementptr inbounds %struct._zend_fcall_info_cache, ptr %130, i32 0, i32 2
  %132 = load ptr, ptr %131, align 8
  %133 = load ptr, ptr %12, align 8
  %134 = load i32, ptr %13, align 4
  %135 = load ptr, ptr %14, align 8
  %136 = load ptr, ptr %15, align 8
  call void @zend_call_known_function(ptr noundef %126, ptr noundef %129, ptr noundef %132, ptr noundef %133, i32 noundef %134, ptr noundef %135, ptr noundef %136) #11
  %137 = getelementptr inbounds [5 x %struct._zval_struct], ptr %26, i64 0, i64 0
  call void @zval_ptr_dtor(ptr noundef %137)
  %138 = getelementptr inbounds [5 x %struct._zval_struct], ptr %26, i64 0, i64 1
  call void @zval_ptr_dtor(ptr noundef %138)
  %139 = getelementptr inbounds [5 x %struct._zval_struct], ptr %26, i64 0, i64 2
  call void @zval_ptr_dtor(ptr noundef %139)
  %140 = getelementptr inbounds [5 x %struct._zval_struct], ptr %26, i64 0, i64 3
  call void @zval_ptr_dtor(ptr noundef %140)
  %141 = getelementptr inbounds [5 x %struct._zval_struct], ptr %26, i64 0, i64 4
  call void @zval_ptr_dtor(ptr noundef %141)
  store ptr %27, ptr %10, align 8
  %142 = load ptr, ptr %10, align 8
  %143 = getelementptr inbounds %struct._zval_struct, ptr %142, i32 0, i32 1
  %144 = load i8, ptr %143, align 8
  %145 = zext i8 %144 to i32
  %146 = icmp eq i32 %145, 0
  br i1 %146, label %151, label %147

147:                                              ; preds = %125
  call void @convert_to_long(ptr noundef %27)
  %148 = getelementptr inbounds %struct._zval_struct, ptr %27, i32 0, i32 0
  %149 = load i64, ptr %148, align 8
  %150 = trunc i64 %149 to i32
  store i32 %150, ptr %25, align 4
  br label %152

151:                                              ; preds = %125
  store i32 0, ptr %25, align 4
  br label %152

152:                                              ; preds = %151, %147
  %153 = load i32, ptr %25, align 4
  store i32 %153, ptr %18, align 4
  br label %154

154:                                              ; preds = %152, %42
  %155 = load i32, ptr %18, align 4
  ret i32 %155
}