; Function Attrs: nounwind uwtable
define hidden i32 @_xml_externalEntityRefHandler(ptr noundef %0, ptr noundef %1, ptr noundef %2, ptr noundef %3, ptr noundef %4) #0 {
  %6 = alloca [5 x %struct._zval_struct], align 16
  %7 = alloca %struct._zval_struct, align 8
  %8 = tail call ptr @XML_GetUserData(ptr noundef %0) #16
  %.not = icmp eq ptr %8, null
  br i1 %.not, label %110, label %9

9:                                                ; preds = %5
  %10 = getelementptr inbounds i8, ptr %8, i64 320
  %11 = load ptr, ptr %10, align 8
  %.not43 = icmp eq ptr %11, null
  br i1 %.not43, label %110, label %12

12:                                               ; preds = %9
  %13 = getelementptr inbounds i8, ptr %8, i64 16
  %14 = load ptr, ptr %13, align 8
  %15 = getelementptr inbounds i8, ptr %8, i64 24
  %16 = load i32, ptr %15, align 8
  store ptr %14, ptr %6, align 16
  %17 = getelementptr inbounds i8, ptr %6, i64 8
  store i32 %16, ptr %17, align 8
  %18 = and i32 %16, 65280
  %.not44 = icmp eq i32 %18, 0
  br i1 %.not44, label %22, label %19

19:                                               ; preds = %12
  %20 = load i32, ptr %14, align 4
  %21 = add i32 %20, 1
  store i32 %21, ptr %14, align 4
  br label %22

22:                                               ; preds = %12, %19
  %23 = getelementptr inbounds i8, ptr %8, i64 8
  %24 = load ptr, ptr %23, align 8
  %25 = getelementptr inbounds i8, ptr %6, i64 16
  %26 = icmp eq ptr %1, null
  br i1 %26, label %_xml_xmlchar_zval.exit, label %27

27:                                               ; preds = %22
  %28 = load i8, ptr %1, align 1
  %.not4.i.i = icmp eq i8 %28, 0
  br i1 %.not4.i.i, label %_xml_xmlcharlen.exit.i, label %.lr.ph.i.i

.lr.ph.i.i:                                       ; preds = %27, %.lr.ph.i.i
  %.06.i.i = phi i32 [ %29, %.lr.ph.i.i ], [ 0, %27 ]
  %.035.i.i = phi ptr [ %30, %.lr.ph.i.i ], [ %1, %27 ]
  %29 = add nuw nsw i32 %.06.i.i, 1
  %30 = getelementptr inbounds i8, ptr %.035.i.i, i64 1
  %31 = load i8, ptr %30, align 1
  %.not.i.i = icmp eq i8 %31, 0
  br i1 %.not.i.i, label %_xml_xmlcharlen.exit.i.loopexit, label %.lr.ph.i.i

_xml_xmlcharlen.exit.i.loopexit:                  ; preds = %.lr.ph.i.i
  %32 = zext nneg i32 %29 to i64
  br label %_xml_xmlcharlen.exit.i

_xml_xmlcharlen.exit.i:                           ; preds = %_xml_xmlcharlen.exit.i.loopexit, %27
  %.0.i = phi i64 [ 0, %27 ], [ %32, %_xml_xmlcharlen.exit.i.loopexit ]
  %33 = tail call fastcc ptr @xml_utf8_decode(ptr noundef nonnull %1, i64 noundef %.0.i, ptr noundef %24)
  store ptr %33, ptr %25, align 16
  %34 = getelementptr inbounds i8, ptr %33, i64 4
  %35 = load i32, ptr %34, align 4
  %36 = and i32 %35, 64
  %.not.i = icmp eq i32 %36, 0
  %37 = select i1 %.not.i, i32 262, i32 6
  %.pre = load ptr, ptr %23, align 8
  br label %_xml_xmlchar_zval.exit

_xml_xmlchar_zval.exit:                           ; preds = %22, %_xml_xmlcharlen.exit.i
  %38 = phi ptr [ %.pre, %_xml_xmlcharlen.exit.i ], [ %24, %22 ]
  %.sink.i = phi i32 [ %37, %_xml_xmlcharlen.exit.i ], [ 2, %22 ]
  %39 = getelementptr inbounds i8, ptr %6, i64 24
  store i32 %.sink.i, ptr %39, align 8
  %40 = getelementptr inbounds i8, ptr %6, i64 32
  %41 = icmp eq ptr %2, null
  br i1 %41, label %_xml_xmlchar_zval.exit56, label %42

42:                                               ; preds = %_xml_xmlchar_zval.exit
  %43 = load i8, ptr %2, align 1
  %.not4.i.i47 = icmp eq i8 %43, 0
  br i1 %.not4.i.i47, label %_xml_xmlcharlen.exit.i52, label %.lr.ph.i.i48

.lr.ph.i.i48:                                     ; preds = %42, %.lr.ph.i.i48
  %.06.i.i49 = phi i32 [ %44, %.lr.ph.i.i48 ], [ 0, %42 ]
  %.035.i.i50 = phi ptr [ %45, %.lr.ph.i.i48 ], [ %2, %42 ]
  %44 = add nuw nsw i32 %.06.i.i49, 1
  %45 = getelementptr inbounds i8, ptr %.035.i.i50, i64 1
  %46 = load i8, ptr %45, align 1
  %.not.i.i51 = icmp eq i8 %46, 0
  br i1 %.not.i.i51, label %_xml_xmlcharlen.exit.i52.loopexit, label %.lr.ph.i.i48

_xml_xmlcharlen.exit.i52.loopexit:                ; preds = %.lr.ph.i.i48
  %47 = zext nneg i32 %44 to i64
  br label %_xml_xmlcharlen.exit.i52

_xml_xmlcharlen.exit.i52:                         ; preds = %_xml_xmlcharlen.exit.i52.loopexit, %42
  %.0.i53 = phi i64 [ 0, %42 ], [ %47, %_xml_xmlcharlen.exit.i52.loopexit ]
  %48 = tail call fastcc ptr @xml_utf8_decode(ptr noundef nonnull %2, i64 noundef %.0.i53, ptr noundef %38)
  store ptr %48, ptr %40, align 16
  %49 = getelementptr inbounds i8, ptr %48, i64 4
  %50 = load i32, ptr %49, align 4
  %51 = and i32 %50, 64
  %.not.i54 = icmp eq i32 %51, 0
  %52 = select i1 %.not.i54, i32 262, i32 6
  %.pre83 = load ptr, ptr %23, align 8
  br label %_xml_xmlchar_zval.exit56

_xml_xmlchar_zval.exit56:                         ; preds = %_xml_xmlchar_zval.exit, %_xml_xmlcharlen.exit.i52
  %53 = phi ptr [ %.pre83, %_xml_xmlcharlen.exit.i52 ], [ %38, %_xml_xmlchar_zval.exit ]
  %.sink.i55 = phi i32 [ %52, %_xml_xmlcharlen.exit.i52 ], [ 2, %_xml_xmlchar_zval.exit ]
  %54 = getelementptr inbounds i8, ptr %6, i64 40
  store i32 %.sink.i55, ptr %54, align 8
  %55 = getelementptr inbounds i8, ptr %6, i64 48
  %56 = icmp eq ptr %3, null
  br i1 %56, label %_xml_xmlchar_zval.exit66, label %57

57:                                               ; preds = %_xml_xmlchar_zval.exit56
  %58 = load i8, ptr %3, align 1
  %.not4.i.i57 = icmp eq i8 %58, 0
  br i1 %.not4.i.i57, label %_xml_xmlcharlen.exit.i62, label %.lr.ph.i.i58

.lr.ph.i.i58:                                     ; preds = %57, %.lr.ph.i.i58
  %.06.i.i59 = phi i32 [ %59, %.lr.ph.i.i58 ], [ 0, %57 ]
  %.035.i.i60 = phi ptr [ %60, %.lr.ph.i.i58 ], [ %3, %57 ]
  %59 = add nuw nsw i32 %.06.i.i59, 1
  %60 = getelementptr inbounds i8, ptr %.035.i.i60, i64 1
  %61 = load i8, ptr %60, align 1
  %.not.i.i61 = icmp eq i8 %61, 0
  br i1 %.not.i.i61, label %_xml_xmlcharlen.exit.i62.loopexit, label %.lr.ph.i.i58

_xml_xmlcharlen.exit.i62.loopexit:                ; preds = %.lr.ph.i.i58
  %62 = zext nneg i32 %59 to i64
  br label %_xml_xmlcharlen.exit.i62

_xml_xmlcharlen.exit.i62:                         ; preds = %_xml_xmlcharlen.exit.i62.loopexit, %57
  %.0.i63 = phi i64 [ 0, %57 ], [ %62, %_xml_xmlcharlen.exit.i62.loopexit ]
  %63 = tail call fastcc ptr @xml_utf8_decode(ptr noundef nonnull %3, i64 noundef %.0.i63, ptr noundef %53)
  store ptr %63, ptr %55, align 16
  %64 = getelementptr inbounds i8, ptr %63, i64 4
  %65 = load i32, ptr %64, align 4
  %66 = and i32 %65, 64
  %.not.i64 = icmp eq i32 %66, 0
  %67 = select i1 %.not.i64, i32 262, i32 6
  %.pre84 = load ptr, ptr %23, align 8
  br label %_xml_xmlchar_zval.exit66

_xml_xmlchar_zval.exit66:                         ; preds = %_xml_xmlchar_zval.exit56, %_xml_xmlcharlen.exit.i62
  %68 = phi ptr [ %.pre84, %_xml_xmlcharlen.exit.i62 ], [ %53, %_xml_xmlchar_zval.exit56 ]
  %.sink.i65 = phi i32 [ %67, %_xml_xmlcharlen.exit.i62 ], [ 2, %_xml_xmlchar_zval.exit56 ]
  %69 = getelementptr inbounds i8, ptr %6, i64 56
  store i32 %.sink.i65, ptr %69, align 8
  %70 = getelementptr inbounds i8, ptr %6, i64 64
  %71 = icmp eq ptr %4, null
  br i1 %71, label %_xml_xmlchar_zval.exit76, label %72

72:                                               ; preds = %_xml_xmlchar_zval.exit66
  %73 = load i8, ptr %4, align 1
  %.not4.i.i67 = icmp eq i8 %73, 0
  br i1 %.not4.i.i67, label %_xml_xmlcharlen.exit.i72, label %.lr.ph.i.i68

.lr.ph.i.i68:                                     ; preds = %72, %.lr.ph.i.i68
  %.06.i.i69 = phi i32 [ %74, %.lr.ph.i.i68 ], [ 0, %72 ]
  %.035.i.i70 = phi ptr [ %75, %.lr.ph.i.i68 ], [ %4, %72 ]
  %74 = add nuw nsw i32 %.06.i.i69, 1
  %75 = getelementptr inbounds i8, ptr %.035.i.i70, i64 1
  %76 = load i8, ptr %75, align 1
  %.not.i.i71 = icmp eq i8 %76, 0
  br i1 %.not.i.i71, label %_xml_xmlcharlen.exit.i72.loopexit, label %.lr.ph.i.i68

_xml_xmlcharlen.exit.i72.loopexit:                ; preds = %.lr.ph.i.i68
  %77 = zext nneg i32 %74 to i64
  br label %_xml_xmlcharlen.exit.i72

_xml_xmlcharlen.exit.i72:                         ; preds = %_xml_xmlcharlen.exit.i72.loopexit, %72
  %.0.i73 = phi i64 [ 0, %72 ], [ %77, %_xml_xmlcharlen.exit.i72.loopexit ]
  %78 = tail call fastcc ptr @xml_utf8_decode(ptr noundef nonnull %4, i64 noundef %.0.i73, ptr noundef %68)
  store ptr %78, ptr %70, align 16
  %79 = getelementptr inbounds i8, ptr %78, i64 4
  %80 = load i32, ptr %79, align 4
  %81 = and i32 %80, 64
  %.not.i74 = icmp eq i32 %81, 0
  %82 = select i1 %.not.i74, i32 262, i32 6
  br label %_xml_xmlchar_zval.exit76

_xml_xmlchar_zval.exit76:                         ; preds = %_xml_xmlchar_zval.exit66, %_xml_xmlcharlen.exit.i72
  %.sink.i75 = phi i32 [ %82, %_xml_xmlcharlen.exit.i72 ], [ 2, %_xml_xmlchar_zval.exit66 ]
  %83 = getelementptr inbounds i8, ptr %6, i64 72
  store i32 %.sink.i75, ptr %83, align 8
  %84 = load ptr, ptr %10, align 8
  %85 = getelementptr inbounds i8, ptr %84, i64 4
  %86 = load i32, ptr %85, align 4
  %87 = and i32 %86, 262144
  %.not45 = icmp eq i32 %87, 0
  br i1 %.not45, label %99, label %88

88:                                               ; preds = %_xml_xmlchar_zval.exit76
  %89 = tail call noalias ptr @_emalloc_256() #16
  %90 = load ptr, ptr %10, align 8
  tail call void @llvm.memcpy.p0.p0.i64(ptr noundef nonnull align 8 dereferenceable(240) %89, ptr noundef nonnull align 8 dereferenceable(240) %90, i64 240, i1 false)
  %91 = getelementptr inbounds i8, ptr %89, i64 8
  %92 = load ptr, ptr %91, align 8
  %93 = getelementptr inbounds i8, ptr %92, i64 4
  %94 = load i32, ptr %93, align 4
  %95 = and i32 %94, 64
  %.not46 = icmp eq i32 %95, 0
  br i1 %.not46, label %96, label %99

96:                                               ; preds = %88
  %97 = load i32, ptr %92, align 4
  %98 = add i32 %97, 1
  store i32 %98, ptr %92, align 4
  br label %99

99:                                               ; preds = %88, %96, %_xml_xmlchar_zval.exit76
  %.0 = phi ptr [ %89, %96 ], [ %84, %_xml_xmlchar_zval.exit76 ], [ %89, %88 ]
  %100 = getelementptr inbounds i8, ptr %8, i64 344
  %101 = load ptr, ptr %100, align 8
  %102 = getelementptr inbounds i8, ptr %8, i64 336
  %103 = load ptr, ptr %102, align 8
  call void @zend_call_known_function(ptr noundef nonnull %.0, ptr noundef %101, ptr noundef %103, ptr noundef nonnull %7, i32 noundef 5, ptr noundef nonnull %6, ptr noundef null) #16
  call void @zval_ptr_dtor(ptr noundef nonnull %6) #16
  call void @zval_ptr_dtor(ptr noundef nonnull %25) #16
  call void @zval_ptr_dtor(ptr noundef nonnull %40) #16
  call void @zval_ptr_dtor(ptr noundef nonnull %55) #16
  call void @zval_ptr_dtor(ptr noundef nonnull %70) #16
  %104 = getelementptr inbounds i8, ptr %7, i64 8
  %105 = load i8, ptr %104, align 8
  %106 = icmp eq i8 %105, 0
  br i1 %106, label %110, label %107

107:                                              ; preds = %99
  call void @convert_to_long(ptr noundef nonnull %7) #16
  %108 = load i64, ptr %7, align 8
  %109 = trunc i64 %108 to i32
  br label %110

110:                                              ; preds = %107, %99, %5, %9
  %.040 = phi i32 [ 0, %9 ], [ 0, %5 ], [ %109, %107 ], [ 0, %99 ]
  ret i32 %.040
}